(iparts
Part
p0
(dp1
S'name'
p2
S'dip16'
p3
sS'space'
p4
(ispaces
Space
p5
(dp6
S'h'
p7
I8
sS'points'
p8
(lp9
(lp10
I1
aNaNaI16
aa(lp11
I2
aNaNaI15
aa(lp12
I3
aNaNaI14
aa(lp13
I4
aNaNaI13
aa(lp14
I5
aNaNaI12
aa(lp15
I6
aNaNaI11
aa(lp16
I7
aNaNaI10
aa(lp17
I8
aNaNaI9
aasS'w'
p18
I4
sbsb.