(iparts
Part
p0
(dp1
S'name'
p2
S'dip12'
p3
sS'space'
p4
(ispaces
Space
p5
(dp6
S'h'
p7
I6
sS'points'
p8
(lp9
(lp10
I1
aNaNaI12
aa(lp11
I2
aNaNaI11
aa(lp12
I3
aNaNaI10
aa(lp13
I4
aNaNaI9
aa(lp14
I5
aNaNaI8
aa(lp15
I6
aNaNaI7
aasS'w'
p16
I4
sbsb.