(iparts
Part
p0
(dp1
S'name'
p2
S'dip18'
p3
sS'space'
p4
(ispaces
Space
p5
(dp6
S'h'
p7
I9
sS'points'
p8
(lp9
(lp10
I1
aNaNaI18
aa(lp11
I2
aNaNaI17
aa(lp12
I3
aNaNaI16
aa(lp13
I4
aNaNaI15
aa(lp14
I5
aNaNaI14
aa(lp15
I6
aNaNaI13
aa(lp16
I7
aNaNaI12
aa(lp17
I8
aNaNaI11
aa(lp18
I9
aNaNaI10
aasS'w'
p19
I4
sbsb.