(iparts
Part
p0
(dp1
S'name'
p2
S'dip18_w'
p3
sS'space'
p4
(ispaces
Space
p5
(dp6
S'h'
p7
I9
sS'points'
p8
(lp9
(lp10
I1
aNaNaNaNaNaI18
aa(lp11
I2
aNaNaNaNaNaI17
aa(lp12
I3
aNaNaNaNaNaI16
aa(lp13
I4
aNaNaNaNaNaI15
aa(lp14
I5
aNaNaNaNaNaI14
aa(lp15
I6
aNaNaNaNaNaI13
aa(lp16
I7
aNaNaNaNaNaI12
aa(lp17
I8
aNaNaNaNaNaI11
aa(lp18
I9
aNaNaNaNaNaI10
aasS'w'
p19
I7
sbsb.