(iparts
Part
p0
(dp1
S'name'
p2
S'dip10'
p3
sS'space'
p4
(ispaces
Space
p5
(dp6
S'h'
p7
I5
sS'points'
p8
(lp9
(lp10
I1
aNaNaI10
aa(lp11
I2
aNaNaI9
aa(lp12
I3
aNaNaI8
aa(lp13
I4
aNaNaI7
aa(lp14
I5
aNaNaI6
aasS'w'
p15
I4
sbsb.