(iparts
Part
p0
(dp1
S'name'
p2
S'dip16_w'
p3
sS'space'
p4
(ispaces
Space
p5
(dp6
S'h'
p7
I8
sS'points'
p8
(lp9
(lp10
I1
aNaNaNaNaNaI16
aa(lp11
I2
aNaNaNaNaNaI15
aa(lp12
I3
aNaNaNaNaNaI14
aa(lp13
I4
aNaNaNaNaNaI13
aa(lp14
I5
aNaNaNaNaNaI12
aa(lp15
I6
aNaNaNaNaNaI11
aa(lp16
I7
aNaNaNaNaNaI10
aa(lp17
I8
aNaNaNaNaNaI9
aasS'w'
p18
I7
sbsb.