(iparts
Part
p0
(dp1
S'name'
p2
S'dip14'
p3
sS'space'
p4
(ispaces
Space
p5
(dp6
S'h'
p7
I7
sS'points'
p8
(lp9
(lp10
I1
aNaNaI14
aa(lp11
I2
aNaNaI13
aa(lp12
I3
aNaNaI12
aa(lp13
I4
aNaNaI11
aa(lp14
I5
aNaNaI10
aa(lp15
I6
aNaNaI9
aa(lp16
I7
aNaNaI8
aasS'w'
p17
I4
sbsb.