(iparts
Part
p0
(dp1
S'name'
p2
S'dip28_w'
p3
sS'space'
p4
(ispaces
Space
p5
(dp6
S'h'
p7
I14
sS'points'
p8
(lp9
(lp10
I1
aNaNaNaNaNaI28
aa(lp11
I2
aNaNaNaNaNaI27
aa(lp12
I3
aNaNaNaNaNaI26
aa(lp13
I4
aNaNaNaNaNaI25
aa(lp14
I5
aNaNaNaNaNaI24
aa(lp15
I6
aNaNaNaNaNaI23
aa(lp16
I7
aNaNaNaNaNaI22
aa(lp17
I8
aNaNaNaNaNaI21
aa(lp18
I9
aNaNaNaNaNaI20
aa(lp19
I10
aNaNaNaNaNaI19
aa(lp20
I11
aNaNaNaNaNaI18
aa(lp21
I12
aNaNaNaNaNaI17
aa(lp22
I13
aNaNaNaNaNaI16
aa(lp23
I14
aNaNaNaNaNaI15
aasS'w'
p24
I7
sbsb.