(iparts
Part
p0
(dp1
S'name'
p2
S'dip22'
p3
sS'space'
p4
(ispaces
Space
p5
(dp6
S'h'
p7
I11
sS'points'
p8
(lp9
(lp10
I1
aNaNaI22
aa(lp11
I2
aNaNaI21
aa(lp12
I3
aNaNaI20
aa(lp13
I4
aNaNaI19
aa(lp14
I5
aNaNaI18
aa(lp15
I6
aNaNaI17
aa(lp16
I7
aNaNaI16
aa(lp17
I8
aNaNaI15
aa(lp18
I9
aNaNaI14
aa(lp19
I10
aNaNaI13
aa(lp20
I11
aNaNaI12
aasS'w'
p21
I4
sbsb.