(iparts
Part
p0
(dp1
S'name'
p2
S'dip20_w'
p3
sS'space'
p4
(ispaces
Space
p5
(dp6
S'h'
p7
I10
sS'points'
p8
(lp9
(lp10
I1
aNaNaNaNaNaI20
aa(lp11
I2
aNaNaNaNaNaI19
aa(lp12
I3
aNaNaNaNaNaI18
aa(lp13
I4
aNaNaNaNaNaI17
aa(lp14
I5
aNaNaNaNaNaI16
aa(lp15
I6
aNaNaNaNaNaI15
aa(lp16
I7
aNaNaNaNaNaI14
aa(lp17
I8
aNaNaNaNaNaI13
aa(lp18
I9
aNaNaNaNaNaI12
aa(lp19
I10
aNaNaNaNaNaI11
aasS'w'
p20
I7
sbsb.