(iparts
Part
p0
(dp1
S'name'
p2
S'dip22_w'
p3
sS'space'
p4
(ispaces
Space
p5
(dp6
S'h'
p7
I11
sS'points'
p8
(lp9
(lp10
I1
aNaNaNaNaNaI22
aa(lp11
I2
aNaNaNaNaNaI21
aa(lp12
I3
aNaNaNaNaNaI20
aa(lp13
I4
aNaNaNaNaNaI19
aa(lp14
I5
aNaNaNaNaNaI18
aa(lp15
I6
aNaNaNaNaNaI17
aa(lp16
I7
aNaNaNaNaNaI16
aa(lp17
I8
aNaNaNaNaNaI15
aa(lp18
I9
aNaNaNaNaNaI14
aa(lp19
I10
aNaNaNaNaNaI13
aa(lp20
I11
aNaNaNaNaNaI12
aasS'w'
p21
I7
sbsb.