(iparts
Part
p0
(dp1
S'name'
p2
S'dip24_w'
p3
sS'space'
p4
(ispaces
Space
p5
(dp6
S'h'
p7
I12
sS'points'
p8
(lp9
(lp10
I1
aNaNaNaNaNaI24
aa(lp11
I2
aNaNaNaNaNaI23
aa(lp12
I3
aNaNaNaNaNaI22
aa(lp13
I4
aNaNaNaNaNaI21
aa(lp14
I5
aNaNaNaNaNaI20
aa(lp15
I6
aNaNaNaNaNaI19
aa(lp16
I7
aNaNaNaNaNaI18
aa(lp17
I8
aNaNaNaNaNaI17
aa(lp18
I9
aNaNaNaNaNaI16
aa(lp19
I10
aNaNaNaNaNaI15
aa(lp20
I11
aNaNaNaNaNaI14
aa(lp21
I12
aNaNaNaNaNaI13
aasS'w'
p22
I7
sbsb.