(iparts
Part
p0
(dp1
S'name'
p2
S'dip20'
p3
sS'space'
p4
(ispaces
Space
p5
(dp6
S'h'
p7
I10
sS'points'
p8
(lp9
(lp10
I1
aNaNaI20
aa(lp11
I2
aNaNaI19
aa(lp12
I3
aNaNaI18
aa(lp13
I4
aNaNaI17
aa(lp14
I5
aNaNaI16
aa(lp15
I6
aNaNaI15
aa(lp16
I7
aNaNaI14
aa(lp17
I8
aNaNaI13
aa(lp18
I9
aNaNaI12
aa(lp19
I10
aNaNaI11
aasS'w'
p20
I4
sbsb.