(iparts
Part
p0
(dp1
S'name'
p2
S'dip26'
p3
sS'space'
p4
(ispaces
Space
p5
(dp6
S'h'
p7
I13
sS'points'
p8
(lp9
(lp10
I1
aNaNaI26
aa(lp11
I2
aNaNaI25
aa(lp12
I3
aNaNaI24
aa(lp13
I4
aNaNaI23
aa(lp14
I5
aNaNaI22
aa(lp15
I6
aNaNaI21
aa(lp16
I7
aNaNaI20
aa(lp17
I8
aNaNaI19
aa(lp18
I9
aNaNaI18
aa(lp19
I10
aNaNaI17
aa(lp20
I11
aNaNaI16
aa(lp21
I12
aNaNaI15
aa(lp22
I13
aNaNaI14
aasS'w'
p23
I4
sbsb.