(iparts
Part
p0
(dp1
S'name'
p2
S'dip24'
p3
sS'space'
p4
(ispaces
Space
p5
(dp6
S'h'
p7
I12
sS'points'
p8
(lp9
(lp10
I1
aNaNaI24
aa(lp11
I2
aNaNaI23
aa(lp12
I3
aNaNaI22
aa(lp13
I4
aNaNaI21
aa(lp14
I5
aNaNaI20
aa(lp15
I6
aNaNaI19
aa(lp16
I7
aNaNaI18
aa(lp17
I8
aNaNaI17
aa(lp18
I9
aNaNaI16
aa(lp19
I10
aNaNaI15
aa(lp20
I11
aNaNaI14
aa(lp21
I12
aNaNaI13
aasS'w'
p22
I4
sbsb.