(iparts
Part
p0
(dp1
S'name'
p2
S'dip26_w'
p3
sS'space'
p4
(ispaces
Space
p5
(dp6
S'h'
p7
I13
sS'points'
p8
(lp9
(lp10
I1
aNaNaNaNaNaI26
aa(lp11
I2
aNaNaNaNaNaI25
aa(lp12
I3
aNaNaNaNaNaI24
aa(lp13
I4
aNaNaNaNaNaI23
aa(lp14
I5
aNaNaNaNaNaI22
aa(lp15
I6
aNaNaNaNaNaI21
aa(lp16
I7
aNaNaNaNaNaI20
aa(lp17
I8
aNaNaNaNaNaI19
aa(lp18
I9
aNaNaNaNaNaI18
aa(lp19
I10
aNaNaNaNaNaI17
aa(lp20
I11
aNaNaNaNaNaI16
aa(lp21
I12
aNaNaNaNaNaI15
aa(lp22
I13
aNaNaNaNaNaI14
aasS'w'
p23
I7
sbsb.