(iparts
Part
p0
(dp1
S'name'
p2
S'dip38_w'
p3
sS'space'
p4
(ispaces
Space
p5
(dp6
S'h'
p7
I19
sS'points'
p8
(lp9
(lp10
I1
aNaNaNaNaNaI38
aa(lp11
I2
aNaNaNaNaNaI37
aa(lp12
I3
aNaNaNaNaNaI36
aa(lp13
I4
aNaNaNaNaNaI35
aa(lp14
I5
aNaNaNaNaNaI34
aa(lp15
I6
aNaNaNaNaNaI33
aa(lp16
I7
aNaNaNaNaNaI32
aa(lp17
I8
aNaNaNaNaNaI31
aa(lp18
I9
aNaNaNaNaNaI30
aa(lp19
I10
aNaNaNaNaNaI29
aa(lp20
I11
aNaNaNaNaNaI28
aa(lp21
I12
aNaNaNaNaNaI27
aa(lp22
I13
aNaNaNaNaNaI26
aa(lp23
I14
aNaNaNaNaNaI25
aa(lp24
I15
aNaNaNaNaNaI24
aa(lp25
I16
aNaNaNaNaNaI23
aa(lp26
I17
aNaNaNaNaNaI22
aa(lp27
I18
aNaNaNaNaNaI21
aa(lp28
I19
aNaNaNaNaNaI20
aasS'w'
p29
I7
sbsb.