(iparts
Part
p0
(dp1
S'name'
p2
S'dip36_w'
p3
sS'space'
p4
(ispaces
Space
p5
(dp6
S'h'
p7
I18
sS'points'
p8
(lp9
(lp10
I1
aNaNaNaNaNaI36
aa(lp11
I2
aNaNaNaNaNaI35
aa(lp12
I3
aNaNaNaNaNaI34
aa(lp13
I4
aNaNaNaNaNaI33
aa(lp14
I5
aNaNaNaNaNaI32
aa(lp15
I6
aNaNaNaNaNaI31
aa(lp16
I7
aNaNaNaNaNaI30
aa(lp17
I8
aNaNaNaNaNaI29
aa(lp18
I9
aNaNaNaNaNaI28
aa(lp19
I10
aNaNaNaNaNaI27
aa(lp20
I11
aNaNaNaNaNaI26
aa(lp21
I12
aNaNaNaNaNaI25
aa(lp22
I13
aNaNaNaNaNaI24
aa(lp23
I14
aNaNaNaNaNaI23
aa(lp24
I15
aNaNaNaNaNaI22
aa(lp25
I16
aNaNaNaNaNaI21
aa(lp26
I17
aNaNaNaNaNaI20
aa(lp27
I18
aNaNaNaNaNaI19
aasS'w'
p28
I7
sbsb.