(iparts
Part
p0
(dp1
S'name'
p2
S'dip32_w'
p3
sS'space'
p4
(ispaces
Space
p5
(dp6
S'h'
p7
I16
sS'points'
p8
(lp9
(lp10
I1
aNaNaNaNaNaI32
aa(lp11
I2
aNaNaNaNaNaI31
aa(lp12
I3
aNaNaNaNaNaI30
aa(lp13
I4
aNaNaNaNaNaI29
aa(lp14
I5
aNaNaNaNaNaI28
aa(lp15
I6
aNaNaNaNaNaI27
aa(lp16
I7
aNaNaNaNaNaI26
aa(lp17
I8
aNaNaNaNaNaI25
aa(lp18
I9
aNaNaNaNaNaI24
aa(lp19
I10
aNaNaNaNaNaI23
aa(lp20
I11
aNaNaNaNaNaI22
aa(lp21
I12
aNaNaNaNaNaI21
aa(lp22
I13
aNaNaNaNaNaI20
aa(lp23
I14
aNaNaNaNaNaI19
aa(lp24
I15
aNaNaNaNaNaI18
aa(lp25
I16
aNaNaNaNaNaI17
aasS'w'
p26
I7
sbsb.