(iparts
Part
p0
(dp1
S'name'
p2
S'dip34_w'
p3
sS'space'
p4
(ispaces
Space
p5
(dp6
S'h'
p7
I17
sS'points'
p8
(lp9
(lp10
I1
aNaNaNaNaNaI34
aa(lp11
I2
aNaNaNaNaNaI33
aa(lp12
I3
aNaNaNaNaNaI32
aa(lp13
I4
aNaNaNaNaNaI31
aa(lp14
I5
aNaNaNaNaNaI30
aa(lp15
I6
aNaNaNaNaNaI29
aa(lp16
I7
aNaNaNaNaNaI28
aa(lp17
I8
aNaNaNaNaNaI27
aa(lp18
I9
aNaNaNaNaNaI26
aa(lp19
I10
aNaNaNaNaNaI25
aa(lp20
I11
aNaNaNaNaNaI24
aa(lp21
I12
aNaNaNaNaNaI23
aa(lp22
I13
aNaNaNaNaNaI22
aa(lp23
I14
aNaNaNaNaNaI21
aa(lp24
I15
aNaNaNaNaNaI20
aa(lp25
I16
aNaNaNaNaNaI19
aa(lp26
I17
aNaNaNaNaNaI18
aasS'w'
p27
I7
sbsb.