(iparts
Part
p0
(dp1
S'name'
p2
S'dip42_w'
p3
sS'space'
p4
(ispaces
Space
p5
(dp6
S'h'
p7
I21
sS'points'
p8
(lp9
(lp10
I1
aNaNaNaNaNaI42
aa(lp11
I2
aNaNaNaNaNaI41
aa(lp12
I3
aNaNaNaNaNaI40
aa(lp13
I4
aNaNaNaNaNaI39
aa(lp14
I5
aNaNaNaNaNaI38
aa(lp15
I6
aNaNaNaNaNaI37
aa(lp16
I7
aNaNaNaNaNaI36
aa(lp17
I8
aNaNaNaNaNaI35
aa(lp18
I9
aNaNaNaNaNaI34
aa(lp19
I10
aNaNaNaNaNaI33
aa(lp20
I11
aNaNaNaNaNaI32
aa(lp21
I12
aNaNaNaNaNaI31
aa(lp22
I13
aNaNaNaNaNaI30
aa(lp23
I14
aNaNaNaNaNaI29
aa(lp24
I15
aNaNaNaNaNaI28
aa(lp25
I16
aNaNaNaNaNaI27
aa(lp26
I17
aNaNaNaNaNaI26
aa(lp27
I18
aNaNaNaNaNaI25
aa(lp28
I19
aNaNaNaNaNaI24
aa(lp29
I20
aNaNaNaNaNaI23
aa(lp30
I21
aNaNaNaNaNaI22
aasS'w'
p31
I7
sbsb.