(iparts
Part
p0
(dp1
S'name'
p2
S'dip44_w'
p3
sS'space'
p4
(ispaces
Space
p5
(dp6
S'h'
p7
I22
sS'points'
p8
(lp9
(lp10
I1
aNaNaNaNaNaI44
aa(lp11
I2
aNaNaNaNaNaI43
aa(lp12
I3
aNaNaNaNaNaI42
aa(lp13
I4
aNaNaNaNaNaI41
aa(lp14
I5
aNaNaNaNaNaI40
aa(lp15
I6
aNaNaNaNaNaI39
aa(lp16
I7
aNaNaNaNaNaI38
aa(lp17
I8
aNaNaNaNaNaI37
aa(lp18
I9
aNaNaNaNaNaI36
aa(lp19
I10
aNaNaNaNaNaI35
aa(lp20
I11
aNaNaNaNaNaI34
aa(lp21
I12
aNaNaNaNaNaI33
aa(lp22
I13
aNaNaNaNaNaI32
aa(lp23
I14
aNaNaNaNaNaI31
aa(lp24
I15
aNaNaNaNaNaI30
aa(lp25
I16
aNaNaNaNaNaI29
aa(lp26
I17
aNaNaNaNaNaI28
aa(lp27
I18
aNaNaNaNaNaI27
aa(lp28
I19
aNaNaNaNaNaI26
aa(lp29
I20
aNaNaNaNaNaI25
aa(lp30
I21
aNaNaNaNaNaI24
aa(lp31
I22
aNaNaNaNaNaI23
aasS'w'
p32
I7
sbsb.