(iparts
Part
p0
(dp1
S'name'
p2
S'dip48_w'
p3
sS'space'
p4
(ispaces
Space
p5
(dp6
S'h'
p7
I24
sS'points'
p8
(lp9
(lp10
I1
aNaNaNaNaNaI48
aa(lp11
I2
aNaNaNaNaNaI47
aa(lp12
I3
aNaNaNaNaNaI46
aa(lp13
I4
aNaNaNaNaNaI45
aa(lp14
I5
aNaNaNaNaNaI44
aa(lp15
I6
aNaNaNaNaNaI43
aa(lp16
I7
aNaNaNaNaNaI42
aa(lp17
I8
aNaNaNaNaNaI41
aa(lp18
I9
aNaNaNaNaNaI40
aa(lp19
I10
aNaNaNaNaNaI39
aa(lp20
I11
aNaNaNaNaNaI38
aa(lp21
I12
aNaNaNaNaNaI37
aa(lp22
I13
aNaNaNaNaNaI36
aa(lp23
I14
aNaNaNaNaNaI35
aa(lp24
I15
aNaNaNaNaNaI34
aa(lp25
I16
aNaNaNaNaNaI33
aa(lp26
I17
aNaNaNaNaNaI32
aa(lp27
I18
aNaNaNaNaNaI31
aa(lp28
I19
aNaNaNaNaNaI30
aa(lp29
I20
aNaNaNaNaNaI29
aa(lp30
I21
aNaNaNaNaNaI28
aa(lp31
I22
aNaNaNaNaNaI27
aa(lp32
I23
aNaNaNaNaNaI26
aa(lp33
I24
aNaNaNaNaNaI25
aasS'w'
p34
I7
sbsb.