(iparts
Part
p0
(dp1
S'name'
p2
S'dip8'
p3
sS'space'
p4
(ispaces
Space
p5
(dp6
S'h'
p7
I4
sS'points'
p8
(lp9
(lp10
I1
aNaNaI8
aa(lp11
I2
aNaNaI7
aa(lp12
I3
aNaNaI6
aa(lp13
I4
aNaNaI5
aasS'w'
p14
I4
sbsb.