(iparts
Part
p0
(dp1
S'name'
p2
S'head_6x8'
p3
sS'space'
p4
(ispaces
Space
p5
(dp6
S'h'
p7
I8
sS'points'
p8
(lp9
(lp10
I1
aI2
aI3
aI4
aI5
aI6
aa(lp11
I7
aI8
aI9
aI10
aI11
aI12
aa(lp12
I13
aI14
aI15
aI16
aI17
aI18
aa(lp13
I19
aI20
aI21
aI22
aI23
aI24
aa(lp14
I25
aI26
aI27
aI28
aI29
aI30
aa(lp15
I31
aI32
aI33
aI34
aI35
aI36
aa(lp16
I37
aI38
aI39
aI40
aI41
aI42
aa(lp17
I43
aI44
aI45
aI46
aI47
aI48
aasS'w'
p18
I6
sbsb.