(iparts
Part
p0
(dp1
S'name'
p2
S'head_3x4'
p3
sS'space'
p4
(ispaces
Space
p5
(dp6
S'h'
p7
I4
sS'points'
p8
(lp9
(lp10
I1
aI2
aI3
aa(lp11
I4
aI5
aI6
aa(lp12
I7
aI8
aI9
aa(lp13
I10
aI11
aI12
aasS'w'
p14
I3
sbsb.