(iparts
Part
p0
(dp1
S'name'
p2
S'head_4x6'
p3
sS'space'
p4
(ispaces
Space
p5
(dp6
S'h'
p7
I6
sS'points'
p8
(lp9
(lp10
I1
aI2
aI3
aI4
aa(lp11
I5
aI6
aI7
aI8
aa(lp12
I9
aI10
aI11
aI12
aa(lp13
I13
aI14
aI15
aI16
aa(lp14
I17
aI18
aI19
aI20
aa(lp15
I21
aI22
aI23
aI24
aasS'w'
p16
I4
sbsb.