(iparts
Part
p0
(dp1
S'name'
p2
S'head_4x11'
p3
sS'space'
p4
(ispaces
Space
p5
(dp6
S'h'
p7
I11
sS'points'
p8
(lp9
(lp10
I1
aI2
aI3
aI4
aa(lp11
I5
aI6
aI7
aI8
aa(lp12
I9
aI10
aI11
aI12
aa(lp13
I13
aI14
aI15
aI16
aa(lp14
I17
aI18
aI19
aI20
aa(lp15
I21
aI22
aI23
aI24
aa(lp16
I25
aI26
aI27
aI28
aa(lp17
I29
aI30
aI31
aI32
aa(lp18
I33
aI34
aI35
aI36
aa(lp19
I37
aI38
aI39
aI40
aa(lp20
I41
aI42
aI43
aI44
aasS'w'
p21
I4
sbsb.