(iparts
Part
p0
(dp1
S'name'
p2
S'head_2x8'
p3
sS'space'
p4
(ispaces
Space
p5
(dp6
S'h'
p7
I8
sS'points'
p8
(lp9
(lp10
I1
aI2
aa(lp11
I3
aI4
aa(lp12
I5
aI6
aa(lp13
I7
aI8
aa(lp14
I9
aI10
aa(lp15
I11
aI12
aa(lp16
I13
aI14
aa(lp17
I15
aI16
aasS'w'
p18
I2
sbsb.