(iparts
Part
p0
(dp1
S'name'
p2
S'head_3x9'
p3
sS'space'
p4
(ispaces
Space
p5
(dp6
S'h'
p7
I9
sS'points'
p8
(lp9
(lp10
I1
aI2
aI3
aa(lp11
I4
aI5
aI6
aa(lp12
I7
aI8
aI9
aa(lp13
I10
aI11
aI12
aa(lp14
I13
aI14
aI15
aa(lp15
I16
aI17
aI18
aa(lp16
I19
aI20
aI21
aa(lp17
I22
aI23
aI24
aa(lp18
I25
aI26
aI27
aasS'w'
p19
I3
sbsb.