(iparts
Part
p0
(dp1
S'name'
p2
S'head_1x12'
p3
sS'space'
p4
(ispaces
Space
p5
(dp6
S'h'
p7
I12
sS'points'
p8
(lp9
(lp10
I1
aa(lp11
I2
aa(lp12
I3
aa(lp13
I4
aa(lp14
I5
aa(lp15
I6
aa(lp16
I7
aa(lp17
I8
aa(lp18
I9
aa(lp19
I10
aa(lp20
I11
aa(lp21
I12
aasS'w'
p22
I1
sbsb.