(iparts
Part
p0
(dp1
S'name'
p2
S'head_5x9'
p3
sS'space'
p4
(ispaces
Space
p5
(dp6
S'h'
p7
I9
sS'points'
p8
(lp9
(lp10
I1
aI2
aI3
aI4
aI5
aa(lp11
I6
aI7
aI8
aI9
aI10
aa(lp12
I11
aI12
aI13
aI14
aI15
aa(lp13
I16
aI17
aI18
aI19
aI20
aa(lp14
I21
aI22
aI23
aI24
aI25
aa(lp15
I26
aI27
aI28
aI29
aI30
aa(lp16
I31
aI32
aI33
aI34
aI35
aa(lp17
I36
aI37
aI38
aI39
aI40
aa(lp18
I41
aI42
aI43
aI44
aI45
aasS'w'
p19
I5
sbsb.